target datalayout = "e-m:e-p270:32:32-p271:32:32-p272:64:64-i64:64-i128:128-f80:128-n8:16:32:64-S128"
target triple = "x86_64-pc-linux-gnu"

%struct.lxb_html_tree = type { ptr, ptr, ptr, ptr, ptr, ptr, ptr, %struct.lxb_html_tree_pending_table_t, ptr, i8, i8, i8, i8, i8, i8, ptr, ptr, ptr, i32, i64 }
%struct.lxb_html_tree_pending_table_t = type { ptr, i8 }
%struct.lexbor_array_t = type { ptr, i64, i64 }
%struct.lxb_dom_node = type { %struct.lxb_dom_event_target, i64, i64, i64, ptr, ptr, ptr, ptr, ptr, ptr, ptr, i32, i64 }
%struct.lxb_dom_event_target = type { ptr }

; Function Attrs: nounwind uwtable
define hidden ptr @lxb_html_tree_open_elements_find_reverse(ptr noundef %0, i64 noundef %1, i64 noundef %2, ptr noundef %3) #0 {
  %5 = alloca ptr, align 8
  %6 = alloca ptr, align 8
  %7 = alloca i64, align 8
  %8 = alloca i64, align 8
  %9 = alloca ptr, align 8
  %10 = alloca ptr, align 8
  %11 = alloca i64, align 8
  %12 = alloca ptr, align 8
  store ptr %0, ptr %6, align 8
  store i64 %1, ptr %7, align 8
  store i64 %2, ptr %8, align 8
  store ptr %3, ptr %9, align 8
  %13 = load ptr, ptr %6, align 8
  %14 = getelementptr inbounds %struct.lxb_html_tree, ptr %13, i32 0, i32 4
  %15 = load ptr, ptr %14, align 8
  %16 = getelementptr inbounds %struct.lexbor_array_t, ptr %15, i32 0, i32 0
  %17 = load ptr, ptr %16, align 8
  store ptr %17, ptr %10, align 8
  %18 = load ptr, ptr %6, align 8
  %19 = getelementptr inbounds %struct.lxb_html_tree, ptr %18, i32 0, i32 4
  %20 = load ptr, ptr %19, align 8
  %21 = getelementptr inbounds %struct.lexbor_array_t, ptr %20, i32 0, i32 2
  %22 = load i64, ptr %21, align 8
  store i64 %22, ptr %11, align 8
  br label %23

23:                                               ; preds = %52, %4
  %24 = load i64, ptr %11, align 8
  %25 = icmp ne i64 %24, 0
  br i1 %25, label %26, label %53

26:                                               ; preds = %23
  %27 = load i64, ptr %11, align 8
  %28 = add i64 %27, -1
  store i64 %28, ptr %11, align 8
  %29 = load ptr, ptr %10, align 8
  %30 = load i64, ptr %11, align 8
  %31 = getelementptr inbounds ptr, ptr %29, i64 %30
  %32 = load ptr, ptr %31, align 8
  store ptr %32, ptr %12, align 8
  %33 = load ptr, ptr %12, align 8
  %34 = getelementptr inbounds %struct.lxb_dom_node, ptr %33, i32 0, i32 1
  %35 = load i64, ptr %34, align 8
  %36 = load i64, ptr %7, align 8
  %37 = icmp eq i64 %35, %36
  br i1 %37, label %38, label %52

38:                                               ; preds = %26
  %39 = load ptr, ptr %12, align 8
  %40 = getelementptr inbounds %struct.lxb_dom_node, ptr %39, i32 0, i32 3
  %41 = load i64, ptr %40, align 8
  %42 = load i64, ptr %8, align 8
  %43 = icmp eq i64 %41, %42
  br i1 %43, label %44, label %52

44:                                               ; preds = %38
  %45 = load ptr, ptr %9, align 8
  %46 = icmp ne ptr %45, null
  br i1 %46, label %47, label %50

47:                                               ; preds = %44
  %48 = load i64, ptr %11, align 8
  %49 = load ptr, ptr %9, align 8
  store i64 %48, ptr %49, align 8
  br label %50

50:                                               ; preds = %47, %44
  %51 = load ptr, ptr %12, align 8
  store ptr %51, ptr %5, align 8
  br label %59

52:                                               ; preds = %38, %26
  br label %23

53:                                               ; preds = %23
  %54 = load ptr, ptr %9, align 8
  %55 = icmp ne ptr %54, null
  br i1 %55, label %56, label %58

56:                                               ; preds = %53
  %57 = load ptr, ptr %9, align 8
  store i64 0, ptr %57, align 8
  br label %58

58:                                               ; preds = %56, %53
  store ptr null, ptr %5, align 8
  br label %59

59:                                               ; preds = %58, %50
  %60 = load ptr, ptr %5, align 8
  ret ptr %60
}