; Function Attrs: nofree norecurse nosync nounwind memory(read, argmem: readwrite, inaccessiblemem: none) uwtable
define hidden ptr @lxb_html_tree_open_elements_find_reverse(ptr nocapture noundef readonly %0, i64 noundef %1, i64 noundef %2, ptr noundef writeonly %3) local_unnamed_addr #3 {
  %5 = getelementptr inbounds i8, ptr %0, i64 32
  %6 = load ptr, ptr %5, align 8
  %7 = load ptr, ptr %6, align 8
  %8 = getelementptr inbounds i8, ptr %6, i64 16
  %9 = load i64, ptr %8, align 8
  %.not21 = icmp eq i64 %9, 0
  br i1 %.not21, label %._crit_edge, label %.lr.ph

.lr.ph:                                           ; preds = %4, %21
  %.01622 = phi i64 [ %10, %21 ], [ %9, %4 ]
  %10 = add i64 %.01622, -1
  %11 = getelementptr inbounds ptr, ptr %7, i64 %10
  %12 = load ptr, ptr %11, align 8
  %13 = getelementptr inbounds i8, ptr %12, i64 8
  %14 = load i64, ptr %13, align 8
  %15 = icmp eq i64 %14, %1
  br i1 %15, label %16, label %21

16:                                               ; preds = %.lr.ph
  %17 = getelementptr inbounds i8, ptr %12, i64 24
  %18 = load i64, ptr %17, align 8
  %19 = icmp eq i64 %18, %2
  br i1 %19, label %20, label %21

20:                                               ; preds = %16
  %.not19 = icmp eq ptr %3, null
  br i1 %.not19, label %22, label %.sink.split

21:                                               ; preds = %16, %.lr.ph
  %.not = icmp eq i64 %10, 0
  br i1 %.not, label %._crit_edge, label %.lr.ph

._crit_edge:                                      ; preds = %21, %4
  %.not18 = icmp eq ptr %3, null
  br i1 %.not18, label %22, label %.sink.split

.sink.split:                                      ; preds = %._crit_edge, %20
  %.sink = phi i64 [ %10, %20 ], [ 0, %._crit_edge ]
  %.0.ph = phi ptr [ %12, %20 ], [ null, %._crit_edge ]
  store i64 %.sink, ptr %3, align 8
  br label %22

22:                                               ; preds = %.sink.split, %._crit_edge, %20
  %.0 = phi ptr [ %12, %20 ], [ null, %._crit_edge ], [ %.0.ph, %.sink.split ]
  ret ptr %.0
}